; Function Attrs: nounwind sspstrong uwtable
define internal fastcc i32 @cmp(i64 noundef %0, i64 noundef %1) unnamed_addr #1 {
  %3 = and i64 %0, 1
  %4 = and i64 %3, %1
  %or.cond.not = icmp eq i64 %4, 0
  br i1 %or.cond.not, label %9, label %5

5:                                                ; preds = %2
  %6 = icmp slt i64 %0, %1
  br i1 %6, label %24, label %7

7:                                                ; preds = %5
  %8 = icmp sgt i64 %0, %1
  %. = zext i1 %8 to i32
  br label %24

9:                                                ; preds = %2
  %10 = icmp eq i64 %0, 0
  %11 = and i64 %0, 7
  %12 = icmp ne i64 %11, 0
  %13 = or i1 %10, %12
  br i1 %13, label %rbimpl_RB_TYPE_P_fastpath.exit.thread, label %rbimpl_RB_TYPE_P_fastpath.exit

rbimpl_RB_TYPE_P_fastpath.exit:                   ; preds = %9
  %14 = inttoptr i64 %0 to ptr
  %15 = load i64, ptr %14, align 8, !tbaa !15
  %16 = and i64 %15, 31
  %17 = icmp eq i64 %16, 10
  br i1 %17, label %18, label %rbimpl_RB_TYPE_P_fastpath.exit.thread

18:                                               ; preds = %rbimpl_RB_TYPE_P_fastpath.exit
  %19 = tail call i64 @rb_big_cmp(i64 noundef %0, i64 noundef %1) #21
  %20 = tail call i64 @rb_fix2int(i64 noundef %19) #21
  %21 = trunc i64 %20 to i32
  br label %24

rbimpl_RB_TYPE_P_fastpath.exit.thread:            ; preds = %9, %rbimpl_RB_TYPE_P_fastpath.exit
  %22 = tail call i64 (i64, i64, i32, ...) @rb_funcall(i64 noundef %0, i64 noundef 135, i32 noundef 1, i64 noundef %1) #21
  %23 = tail call i32 @rb_cmpint(i64 noundef %22, i64 noundef %0, i64 noundef %1) #21
  br label %24

24:                                               ; preds = %7, %5, %rbimpl_RB_TYPE_P_fastpath.exit.thread, %18
  %.0 = phi i32 [ %21, %18 ], [ %23, %rbimpl_RB_TYPE_P_fastpath.exit.thread ], [ -1, %5 ], [ %., %7 ]
  ret i32 %.0
}